target datalayout = "e-m:e-p270:32:32-p271:32:32-p272:64:64-i64:64-i128:128-f80:128-n8:16:32:64-S128"
target triple = "x86_64-pc-linux-gnu"

%struct._lv_obj_t = type { ptr, ptr, ptr, ptr, ptr, %struct.lv_area_t, i32, i16, i16 }
%struct.lv_area_t = type { i32, i32, i32, i32 }
%struct._lv_obj_style_t = type { ptr, i32 }
%struct.trans_t = type { ptr, i8, i32, %union.lv_style_value_t, %union.lv_style_value_t }
%union.lv_style_value_t = type { ptr }
%struct.lv_color_t = type { i8, i8, i8 }

; Function Attrs: nounwind uwtable
define internal void @trans_anim_cb(ptr noundef %0, i32 noundef %1) #0 {
  %3 = alloca ptr, align 8
  %4 = alloca i32, align 4
  %5 = alloca ptr, align 8
  %6 = alloca ptr, align 8
  %7 = alloca i32, align 4
  %8 = alloca %union.lv_style_value_t, align 8
  %9 = alloca %struct.lv_color_t, align 1
  %10 = alloca i24, align 8
  %11 = alloca i24, align 8
  %12 = alloca %union.lv_style_value_t, align 8
  %13 = alloca i8, align 1
  %14 = alloca i24, align 8
  %15 = alloca i24, align 8
  store ptr %0, ptr %3, align 8, !tbaa !31
  store i32 %1, ptr %4, align 4, !tbaa !32
  call void @llvm.lifetime.start.p0(i64 8, ptr %5) #6
  %16 = load ptr, ptr %3, align 8, !tbaa !31
  store ptr %16, ptr %5, align 8, !tbaa !31
  call void @llvm.lifetime.start.p0(i64 8, ptr %6) #6
  %17 = load ptr, ptr %5, align 8, !tbaa !31
  %18 = getelementptr inbounds nuw %struct.trans_t, ptr %17, i32 0, i32 0
  %19 = load ptr, ptr %18, align 8, !tbaa !48
  store ptr %19, ptr %6, align 8, !tbaa !30
  call void @llvm.lifetime.start.p0(i64 4, ptr %7) #6
  store i32 0, ptr %7, align 4, !tbaa !32
  br label %20

20:                                               ; preds = %227, %2
  %21 = load i32, ptr %7, align 4, !tbaa !32
  %22 = load ptr, ptr %6, align 8, !tbaa !30
  %23 = getelementptr inbounds nuw %struct._lv_obj_t, ptr %22, i32 0, i32 8
  %24 = load i16, ptr %23, align 2
  %25 = lshr i16 %24, 4
  %26 = and i16 %25, 63
  %27 = zext i16 %26 to i32
  %28 = icmp ult i32 %21, %27
  br i1 %28, label %29, label %230

29:                                               ; preds = %20
  %30 = load ptr, ptr %6, align 8, !tbaa !30
  %31 = getelementptr inbounds nuw %struct._lv_obj_t, ptr %30, i32 0, i32 3
  %32 = load ptr, ptr %31, align 8, !tbaa !33
  %33 = load i32, ptr %7, align 4, !tbaa !32
  %34 = zext i32 %33 to i64
  %35 = getelementptr inbounds nuw %struct._lv_obj_style_t, ptr %32, i64 %34
  %36 = getelementptr inbounds nuw %struct._lv_obj_style_t, ptr %35, i32 0, i32 1
  %37 = load i32, ptr %36, align 8
  %38 = lshr i32 %37, 25
  %39 = and i32 %38, 1
  %40 = icmp eq i32 %39, 0
  br i1 %40, label %55, label %41

41:                                               ; preds = %29
  %42 = load ptr, ptr %6, align 8, !tbaa !30
  %43 = getelementptr inbounds nuw %struct._lv_obj_t, ptr %42, i32 0, i32 3
  %44 = load ptr, ptr %43, align 8, !tbaa !33
  %45 = load i32, ptr %7, align 4, !tbaa !32
  %46 = zext i32 %45 to i64
  %47 = getelementptr inbounds nuw %struct._lv_obj_style_t, ptr %44, i64 %46
  %48 = getelementptr inbounds nuw %struct._lv_obj_style_t, ptr %47, i32 0, i32 1
  %49 = load i32, ptr %48, align 8
  %50 = and i32 %49, 16777215
  %51 = load ptr, ptr %5, align 8, !tbaa !31
  %52 = getelementptr inbounds nuw %struct.trans_t, ptr %51, i32 0, i32 2
  %53 = load i32, ptr %52, align 4, !tbaa !50
  %54 = icmp ne i32 %50, %53
  br i1 %54, label %55, label %56

55:                                               ; preds = %41, %29
  br label %227

56:                                               ; preds = %41
  call void @llvm.lifetime.start.p0(i64 8, ptr %8) #6
  call void @llvm.memset.p0.i64(ptr align 8 %8, i8 0, i64 8, i1 false)
  %57 = load ptr, ptr %5, align 8, !tbaa !31
  %58 = getelementptr inbounds nuw %struct.trans_t, ptr %57, i32 0, i32 1
  %59 = load i8, ptr %58, align 8, !tbaa !51
  %60 = zext i8 %59 to i32
  switch i32 %60, label %141 [
    i32 52, label %61
    i32 53, label %61
    i32 103, label %61
    i32 102, label %73
    i32 90, label %73
    i32 97, label %85
    i32 28, label %117
    i32 35, label %117
    i32 49, label %117
    i32 88, label %117
    i32 61, label %117
    i32 57, label %117
    i32 69, label %117
  ]

61:                                               ; preds = %56, %56, %56
  %62 = load i32, ptr %4, align 4, !tbaa !32
  %63 = icmp slt i32 %62, 255
  br i1 %63, label %64, label %68

64:                                               ; preds = %61
  %65 = load ptr, ptr %5, align 8, !tbaa !31
  %66 = getelementptr inbounds nuw %struct.trans_t, ptr %65, i32 0, i32 3
  %67 = load i32, ptr %66, align 8, !tbaa !43
  store i32 %67, ptr %8, align 8, !tbaa !43
  br label %72

68:                                               ; preds = %61
  %69 = load ptr, ptr %5, align 8, !tbaa !31
  %70 = getelementptr inbounds nuw %struct.trans_t, ptr %69, i32 0, i32 4
  %71 = load i32, ptr %70, align 8, !tbaa !43
  store i32 %71, ptr %8, align 8, !tbaa !43
  br label %72

72:                                               ; preds = %68, %64
  br label %172

73:                                               ; preds = %56, %56
  %74 = load i32, ptr %4, align 4, !tbaa !32
  %75 = icmp slt i32 %74, 255
  br i1 %75, label %76, label %80

76:                                               ; preds = %73
  %77 = load ptr, ptr %5, align 8, !tbaa !31
  %78 = getelementptr inbounds nuw %struct.trans_t, ptr %77, i32 0, i32 3
  %79 = load ptr, ptr %78, align 8, !tbaa !43
  store ptr %79, ptr %8, align 8, !tbaa !43
  br label %84

80:                                               ; preds = %73
  %81 = load ptr, ptr %5, align 8, !tbaa !31
  %82 = getelementptr inbounds nuw %struct.trans_t, ptr %81, i32 0, i32 4
  %83 = load ptr, ptr %82, align 8, !tbaa !43
  store ptr %83, ptr %8, align 8, !tbaa !43
  br label %84

84:                                               ; preds = %80, %76
  br label %172

85:                                               ; preds = %56
  %86 = load ptr, ptr %5, align 8, !tbaa !31
  %87 = getelementptr inbounds nuw %struct.trans_t, ptr %86, i32 0, i32 3
  %88 = load ptr, ptr %87, align 8, !tbaa !43
  %89 = icmp eq ptr %88, null
  br i1 %89, label %90, label %94

90:                                               ; preds = %85
  %91 = load ptr, ptr %5, align 8, !tbaa !31
  %92 = getelementptr inbounds nuw %struct.trans_t, ptr %91, i32 0, i32 4
  %93 = load ptr, ptr %92, align 8, !tbaa !43
  store ptr %93, ptr %8, align 8, !tbaa !43
  br label %116

94:                                               ; preds = %85
  %95 = load ptr, ptr %5, align 8, !tbaa !31
  %96 = getelementptr inbounds nuw %struct.trans_t, ptr %95, i32 0, i32 4
  %97 = load ptr, ptr %96, align 8, !tbaa !43
  %98 = icmp eq ptr %97, null
  br i1 %98, label %99, label %103

99:                                               ; preds = %94
  %100 = load ptr, ptr %5, align 8, !tbaa !31
  %101 = getelementptr inbounds nuw %struct.trans_t, ptr %100, i32 0, i32 3
  %102 = load ptr, ptr %101, align 8, !tbaa !43
  store ptr %102, ptr %8, align 8, !tbaa !43
  br label %115

103:                                              ; preds = %94
  %104 = load i32, ptr %4, align 4, !tbaa !32
  %105 = icmp slt i32 %104, 128
  br i1 %105, label %106, label %110

106:                                              ; preds = %103
  %107 = load ptr, ptr %5, align 8, !tbaa !31
  %108 = getelementptr inbounds nuw %struct.trans_t, ptr %107, i32 0, i32 3
  %109 = load ptr, ptr %108, align 8, !tbaa !43
  store ptr %109, ptr %8, align 8, !tbaa !43
  br label %114

110:                                              ; preds = %103
  %111 = load ptr, ptr %5, align 8, !tbaa !31
  %112 = getelementptr inbounds nuw %struct.trans_t, ptr %111, i32 0, i32 4
  %113 = load ptr, ptr %112, align 8, !tbaa !43
  store ptr %113, ptr %8, align 8, !tbaa !43
  br label %114

114:                                              ; preds = %110, %106
  br label %115

115:                                              ; preds = %114, %99
  br label %116

116:                                              ; preds = %115, %90
  br label %172

117:                                              ; preds = %56, %56, %56, %56, %56, %56, %56
  %118 = load i32, ptr %4, align 4, !tbaa !32
  %119 = icmp sle i32 %118, 0
  br i1 %119, label %120, label %123

120:                                              ; preds = %117
  %121 = load ptr, ptr %5, align 8, !tbaa !31
  %122 = getelementptr inbounds nuw %struct.trans_t, ptr %121, i32 0, i32 3
  call void @llvm.memcpy.p0.p0.i64(ptr align 8 %8, ptr align 8 %122, i64 3, i1 false), !tbaa.struct !118
  br label %140

123:                                              ; preds = %117
  %124 = load i32, ptr %4, align 4, !tbaa !32
  %125 = icmp sge i32 %124, 255
  br i1 %125, label %126, label %129

126:                                              ; preds = %123
  %127 = load ptr, ptr %5, align 8, !tbaa !31
  %128 = getelementptr inbounds nuw %struct.trans_t, ptr %127, i32 0, i32 4
  call void @llvm.memcpy.p0.p0.i64(ptr align 8 %8, ptr align 8 %128, i64 3, i1 false), !tbaa.struct !118
  br label %139

129:                                              ; preds = %123
  call void @llvm.lifetime.start.p0(i64 3, ptr %9) #6
  %130 = load ptr, ptr %5, align 8, !tbaa !31
  %131 = getelementptr inbounds nuw %struct.trans_t, ptr %130, i32 0, i32 4
  %132 = load ptr, ptr %5, align 8, !tbaa !31
  %133 = getelementptr inbounds nuw %struct.trans_t, ptr %132, i32 0, i32 3
  %134 = load i32, ptr %4, align 4, !tbaa !32
  %135 = trunc i32 %134 to i8
  call void @llvm.memcpy.p0.p0.i64(ptr align 8 %10, ptr align 8 %131, i64 3, i1 false)
  %136 = load i24, ptr %10, align 8
  call void @llvm.memcpy.p0.p0.i64(ptr align 8 %11, ptr align 8 %133, i64 3, i1 false)
  %137 = load i24, ptr %11, align 8
  %138 = call i24 @lv_color_mix(i24 %136, i24 %137, i8 noundef zeroext %135)
  store i24 %138, ptr %9, align 1
  call void @llvm.memcpy.p0.p0.i64(ptr align 8 %8, ptr align 1 %9, i64 3, i1 false), !tbaa.struct !118
  call void @llvm.lifetime.end.p0(i64 3, ptr %9) #6
  br label %139

139:                                              ; preds = %129, %126
  br label %140

140:                                              ; preds = %139, %120
  br label %172

141:                                              ; preds = %56
  %142 = load i32, ptr %4, align 4, !tbaa !32
  %143 = icmp eq i32 %142, 0
  br i1 %143, label %144, label %148

144:                                              ; preds = %141
  %145 = load ptr, ptr %5, align 8, !tbaa !31
  %146 = getelementptr inbounds nuw %struct.trans_t, ptr %145, i32 0, i32 3
  %147 = load i32, ptr %146, align 8, !tbaa !43
  store i32 %147, ptr %8, align 8, !tbaa !43
  br label %171

148:                                              ; preds = %141
  %149 = load i32, ptr %4, align 4, !tbaa !32
  %150 = icmp eq i32 %149, 255
  br i1 %150, label %151, label %155

151:                                              ; preds = %148
  %152 = load ptr, ptr %5, align 8, !tbaa !31
  %153 = getelementptr inbounds nuw %struct.trans_t, ptr %152, i32 0, i32 4
  %154 = load i32, ptr %153, align 8, !tbaa !43
  store i32 %154, ptr %8, align 8, !tbaa !43
  br label %170

155:                                              ; preds = %148
  %156 = load ptr, ptr %5, align 8, !tbaa !31
  %157 = getelementptr inbounds nuw %struct.trans_t, ptr %156, i32 0, i32 3
  %158 = load i32, ptr %157, align 8, !tbaa !43
  %159 = load ptr, ptr %5, align 8, !tbaa !31
  %160 = getelementptr inbounds nuw %struct.trans_t, ptr %159, i32 0, i32 4
  %161 = load i32, ptr %160, align 8, !tbaa !43
  %162 = load ptr, ptr %5, align 8, !tbaa !31
  %163 = getelementptr inbounds nuw %struct.trans_t, ptr %162, i32 0, i32 3
  %164 = load i32, ptr %163, align 8, !tbaa !43
  %165 = sub nsw i32 %161, %164
  %166 = load i32, ptr %4, align 4, !tbaa !32
  %167 = mul nsw i32 %165, %166
  %168 = ashr i32 %167, 8
  %169 = add nsw i32 %158, %168
  store i32 %169, ptr %8, align 8, !tbaa !43
  br label %170

170:                                              ; preds = %155, %151
  br label %171

171:                                              ; preds = %170, %144
  br label %172

172:                                              ; preds = %171, %140, %116, %84, %72
  call void @llvm.lifetime.start.p0(i64 8, ptr %12) #6
  call void @llvm.memset.p0.i64(ptr align 8 %12, i8 0, i64 8, i1 false)
  call void @llvm.lifetime.start.p0(i64 1, ptr %13) #6
  store i8 1, ptr %13, align 1, !tbaa !47
  %173 = load ptr, ptr %6, align 8, !tbaa !30
  %174 = getelementptr inbounds nuw %struct._lv_obj_t, ptr %173, i32 0, i32 3
  %175 = load ptr, ptr %174, align 8, !tbaa !33
  %176 = load i32, ptr %7, align 4, !tbaa !32
  %177 = zext i32 %176 to i64
  %178 = getelementptr inbounds nuw %struct._lv_obj_style_t, ptr %175, i64 %177
  %179 = getelementptr inbounds nuw %struct._lv_obj_style_t, ptr %178, i32 0, i32 0
  %180 = load ptr, ptr %179, align 8, !tbaa !45
  %181 = load ptr, ptr %5, align 8, !tbaa !31
  %182 = getelementptr inbounds nuw %struct.trans_t, ptr %181, i32 0, i32 1
  %183 = load i8, ptr %182, align 8, !tbaa !51
  %184 = call i32 @lv_style_get_prop(ptr noundef %180, i8 noundef zeroext %183, ptr noundef %12)
  %185 = icmp ne i32 %184, 0
  br i1 %185, label %186, label %200

186:                                              ; preds = %172
  %187 = load ptr, ptr %8, align 8, !tbaa !43
  %188 = load ptr, ptr %12, align 8, !tbaa !43
  %189 = icmp eq ptr %187, %188
  br i1 %189, label %190, label %199

190:                                              ; preds = %186
  call void @llvm.memcpy.p0.p0.i64(ptr align 8 %14, ptr align 8 %8, i64 3, i1 false)
  %191 = load i24, ptr %14, align 8
  call void @llvm.memcpy.p0.p0.i64(ptr align 8 %15, ptr align 8 %12, i64 3, i1 false)
  %192 = load i24, ptr %15, align 8
  %193 = call zeroext i1 @lv_color_eq(i24 %191, i24 %192)
  br i1 %193, label %194, label %199

194:                                              ; preds = %190
  %195 = load i32, ptr %8, align 8, !tbaa !43
  %196 = load i32, ptr %12, align 8, !tbaa !43
  %197 = icmp eq i32 %195, %196
  br i1 %197, label %198, label %199

198:                                              ; preds = %194
  store i8 0, ptr %13, align 1, !tbaa !47
  br label %199

199:                                              ; preds = %198, %194, %190, %186
  br label %200

200:                                              ; preds = %199, %172
  %201 = load ptr, ptr %6, align 8, !tbaa !30
  %202 = getelementptr inbounds nuw %struct._lv_obj_t, ptr %201, i32 0, i32 3
  %203 = load ptr, ptr %202, align 8, !tbaa !33
  %204 = load i32, ptr %7, align 4, !tbaa !32
  %205 = zext i32 %204 to i64
  %206 = getelementptr inbounds nuw %struct._lv_obj_style_t, ptr %203, i64 %205
  %207 = getelementptr inbounds nuw %struct._lv_obj_style_t, ptr %206, i32 0, i32 0
  %208 = load ptr, ptr %207, align 8, !tbaa !45
  %209 = load ptr, ptr %5, align 8, !tbaa !31
  %210 = getelementptr inbounds nuw %struct.trans_t, ptr %209, i32 0, i32 1
  %211 = load i8, ptr %210, align 8, !tbaa !51
  %212 = getelementptr inbounds nuw %union.lv_style_value_t, ptr %8, i32 0, i32 0
  %213 = load ptr, ptr %212, align 8
  call void @lv_style_set_prop(ptr noundef %208, i8 noundef zeroext %211, ptr %213)
  %214 = load i8, ptr %13, align 1, !tbaa !47, !range !54, !noundef !55
  %215 = trunc i8 %214 to i1
  br i1 %215, label %216, label %226

216:                                              ; preds = %200
  %217 = load ptr, ptr %5, align 8, !tbaa !31
  %218 = getelementptr inbounds nuw %struct.trans_t, ptr %217, i32 0, i32 0
  %219 = load ptr, ptr %218, align 8, !tbaa !48
  %220 = load ptr, ptr %5, align 8, !tbaa !31
  %221 = getelementptr inbounds nuw %struct.trans_t, ptr %220, i32 0, i32 2
  %222 = load i32, ptr %221, align 4, !tbaa !50
  %223 = load ptr, ptr %5, align 8, !tbaa !31
  %224 = getelementptr inbounds nuw %struct.trans_t, ptr %223, i32 0, i32 1
  %225 = load i8, ptr %224, align 8, !tbaa !51
  call void @lv_obj_refresh_style(ptr noundef %219, i32 noundef %222, i8 noundef zeroext %225)
  br label %226

226:                                              ; preds = %216, %200
  call void @llvm.lifetime.end.p0(i64 1, ptr %13) #6
  call void @llvm.lifetime.end.p0(i64 8, ptr %12) #6
  call void @llvm.lifetime.end.p0(i64 8, ptr %8) #6
  br label %230

227:                                              ; preds = %55
  %228 = load i32, ptr %7, align 4, !tbaa !32
  %229 = add i32 %228, 1
  store i32 %229, ptr %7, align 4, !tbaa !32
  br label %20, !llvm.loop !119

230:                                              ; preds = %226, %20
  call void @llvm.lifetime.end.p0(i64 4, ptr %7) #6
  call void @llvm.lifetime.end.p0(i64 8, ptr %6) #6
  call void @llvm.lifetime.end.p0(i64 8, ptr %5) #6
  ret void
}