; Function Attrs: nounwind uwtable
define internal void @trans_anim_cb(ptr noundef readonly captures(none) %0, i32 noundef %1) #0 {
  %3 = alloca %union.lv_style_value_t, align 8
  %4 = load ptr, ptr %0, align 8, !tbaa !51
  %5 = getelementptr inbounds nuw i8, ptr %4, i64 62
  %6 = load i16, ptr %5, align 2
  %7 = lshr i16 %6, 4
  %8 = and i16 %7, 63
  %.not100 = icmp eq i16 %8, 0
  br i1 %.not100, label %.loopexit, label %.lr.ph

.lr.ph:                                           ; preds = %2
  %9 = getelementptr inbounds nuw i8, ptr %4, i64 24
  %10 = load ptr, ptr %9, align 8, !tbaa !38
  %11 = getelementptr inbounds nuw i8, ptr %0, i64 12
  %wide.trip.count = zext nneg i16 %8 to i64
  br label %12

12:                                               ; preds = %.lr.ph, %113
  %indvars.iv = phi i64 [ 0, %.lr.ph ], [ %indvars.iv.next, %113 ]
  %13 = getelementptr inbounds nuw %struct._lv_obj_style_t, ptr %10, i64 %indvars.iv, i32 1
  %14 = load i32, ptr %13, align 8
  %15 = and i32 %14, 33554432
  %16 = icmp eq i32 %15, 0
  br i1 %16, label %113, label %17

17:                                               ; preds = %12
  %18 = and i32 %14, 16777215
  %19 = load i32, ptr %11, align 4, !tbaa !56
  %.not = icmp eq i32 %18, %19
  br i1 %.not, label %20, label %113

20:                                               ; preds = %17
  %21 = getelementptr inbounds nuw i8, ptr %0, i64 8
  %22 = load i8, ptr %21, align 8, !tbaa !53
  switch i8 %22, label %66 [
    i8 52, label %23
    i8 53, label %23
    i8 103, label %23
    i8 102, label %33
    i8 90, label %33
    i8 97, label %41
    i8 28, label %51
    i8 35, label %51
    i8 49, label %51
    i8 88, label %51
    i8 61, label %51
    i8 57, label %51
    i8 69, label %51
  ]

23:                                               ; preds = %20, %20, %20
  %24 = icmp slt i32 %1, 255
  br i1 %24, label %25, label %29

25:                                               ; preds = %23
  %26 = getelementptr inbounds nuw i8, ptr %0, i64 16
  %27 = load i32, ptr %26, align 8, !tbaa !37
  %.sroa.08.0.insert.ext = zext i32 %27 to i64
  %28 = inttoptr i64 %.sroa.08.0.insert.ext to ptr
  br label %85

29:                                               ; preds = %23
  %30 = getelementptr inbounds nuw i8, ptr %0, i64 24
  %31 = load i32, ptr %30, align 8, !tbaa !37
  %.sroa.08.0.insert.ext11 = zext i32 %31 to i64
  %32 = inttoptr i64 %.sroa.08.0.insert.ext11 to ptr
  br label %85

33:                                               ; preds = %20, %20
  %34 = icmp slt i32 %1, 255
  br i1 %34, label %35, label %38

35:                                               ; preds = %33
  %36 = getelementptr inbounds nuw i8, ptr %0, i64 16
  %37 = load ptr, ptr %36, align 8, !tbaa !37
  br label %85

38:                                               ; preds = %33
  %39 = getelementptr inbounds nuw i8, ptr %0, i64 24
  %40 = load ptr, ptr %39, align 8, !tbaa !37
  br label %85

41:                                               ; preds = %20
  %42 = getelementptr inbounds nuw i8, ptr %0, i64 16
  %43 = load ptr, ptr %42, align 8, !tbaa !37
  %44 = icmp eq ptr %43, null
  %45 = getelementptr inbounds nuw i8, ptr %0, i64 24
  %46 = load ptr, ptr %45, align 8, !tbaa !37
  br i1 %44, label %85, label %47

47:                                               ; preds = %41
  %48 = icmp eq ptr %46, null
  br i1 %48, label %85, label %49

49:                                               ; preds = %47
  %50 = icmp slt i32 %1, 128
  %. = select i1 %50, ptr %43, ptr %46
  br label %85

51:                                               ; preds = %20, %20, %20, %20, %20, %20, %20
  %52 = icmp slt i32 %1, 1
  br i1 %52, label %53, label %56

53:                                               ; preds = %51
  %54 = getelementptr inbounds nuw i8, ptr %0, i64 16
  %.sroa.08.0.copyload = load i24, ptr %54, align 8
  %.sroa.08.0.insert.ext34 = zext i24 %.sroa.08.0.copyload to i64
  %55 = inttoptr i64 %.sroa.08.0.insert.ext34 to ptr
  br label %85

56:                                               ; preds = %51
  %57 = icmp samesign ugt i32 %1, 254
  %58 = getelementptr inbounds nuw i8, ptr %0, i64 24
  br i1 %57, label %59, label %61

59:                                               ; preds = %56
  %.sroa.08.0.copyload37 = load i24, ptr %58, align 8
  %.sroa.08.0.insert.ext39 = zext i24 %.sroa.08.0.copyload37 to i64
  %60 = inttoptr i64 %.sroa.08.0.insert.ext39 to ptr
  br label %85

61:                                               ; preds = %56
  %62 = getelementptr inbounds nuw i8, ptr %0, i64 16
  %63 = trunc nuw i32 %1 to i8
  %.0.copyload6 = load i24, ptr %58, align 8
  %.0.copyload4 = load i24, ptr %62, align 8
  %64 = tail call i24 @lv_color_mix(i24 %.0.copyload6, i24 %.0.copyload4, i8 noundef zeroext %63) #9
  %.sroa.08.0.insert.ext29 = zext i24 %64 to i64
  %65 = inttoptr i64 %.sroa.08.0.insert.ext29 to ptr
  %.pre = load ptr, ptr %9, align 8, !tbaa !38
  %.pre103 = load i8, ptr %21, align 8, !tbaa !53
  br label %85

66:                                               ; preds = %20
  switch i32 %1, label %75 [
    i32 0, label %67
    i32 255, label %71
  ]

67:                                               ; preds = %66
  %68 = getelementptr inbounds nuw i8, ptr %0, i64 16
  %69 = load i32, ptr %68, align 8, !tbaa !37
  %.sroa.08.0.insert.ext15 = zext i32 %69 to i64
  %70 = inttoptr i64 %.sroa.08.0.insert.ext15 to ptr
  br label %85

71:                                               ; preds = %66
  %72 = getelementptr inbounds nuw i8, ptr %0, i64 24
  %73 = load i32, ptr %72, align 8, !tbaa !37
  %.sroa.08.0.insert.ext19 = zext i32 %73 to i64
  %74 = inttoptr i64 %.sroa.08.0.insert.ext19 to ptr
  br label %85

75:                                               ; preds = %66
  %76 = getelementptr inbounds nuw i8, ptr %0, i64 16
  %77 = load i32, ptr %76, align 8, !tbaa !37
  %78 = getelementptr inbounds nuw i8, ptr %0, i64 24
  %79 = load i32, ptr %78, align 8, !tbaa !37
  %80 = sub nsw i32 %79, %77
  %81 = mul nsw i32 %80, %1
  %82 = ashr i32 %81, 8
  %83 = add nsw i32 %82, %77
  %.sroa.08.0.insert.ext23 = zext i32 %83 to i64
  %84 = inttoptr i64 %.sroa.08.0.insert.ext23 to ptr
  br label %85

85:                                               ; preds = %41, %49, %47, %67, %75, %71, %53, %61, %59, %35, %38, %25, %29
  %86 = phi i8 [ %22, %67 ], [ %22, %71 ], [ %22, %75 ], [ %22, %53 ], [ %22, %59 ], [ %.pre103, %61 ], [ %22, %35 ], [ %22, %38 ], [ %22, %25 ], [ %22, %29 ], [ 97, %47 ], [ 97, %49 ], [ 97, %41 ]
  %87 = phi ptr [ %10, %67 ], [ %10, %71 ], [ %10, %75 ], [ %10, %53 ], [ %10, %59 ], [ %.pre, %61 ], [ %10, %35 ], [ %10, %38 ], [ %10, %25 ], [ %10, %29 ], [ %10, %47 ], [ %10, %49 ], [ %10, %41 ]
  %.sroa.08.0 = phi ptr [ %70, %67 ], [ %74, %71 ], [ %84, %75 ], [ %55, %53 ], [ %60, %59 ], [ %65, %61 ], [ %37, %35 ], [ %40, %38 ], [ %28, %25 ], [ %32, %29 ], [ %43, %47 ], [ %., %49 ], [ %46, %41 ]
  call void @llvm.lifetime.start.p0(i64 8, ptr nonnull %3) #9
  store i64 0, ptr %3, align 8
  %88 = getelementptr inbounds nuw %struct._lv_obj_style_t, ptr %87, i64 %indvars.iv
  %89 = load ptr, ptr %88, align 8, !tbaa !49
  %90 = call i32 @lv_style_get_prop(ptr noundef %89, i8 noundef zeroext %86, ptr noundef nonnull %3) #9
  %.not93 = icmp ne i32 %90, 0
  %91 = load ptr, ptr %3, align 8
  %92 = icmp eq ptr %.sroa.08.0, %91
  %or.cond = select i1 %.not93, i1 %92, i1 false
  br i1 %or.cond, label %93, label %104

93:                                               ; preds = %85
  %94 = ptrtoint ptr %91 to i64
  %95 = trunc i64 %94 to i24
  %96 = ptrtoint ptr %.sroa.08.0 to i64
  %.sroa.08.0.extract.trunc27 = trunc i64 %96 to i24
  %97 = call zeroext i1 @lv_color_eq(i24 %.sroa.08.0.extract.trunc27, i24 %95) #9
  %.sroa.08.0.extract.trunc = trunc i64 %96 to i32
  %98 = load i32, ptr %3, align 8
  %99 = icmp eq i32 %98, %.sroa.08.0.extract.trunc
  %or.cond96 = select i1 %97, i1 %99, i1 false
  br i1 %or.cond96, label %.critedge, label %104

.critedge:                                        ; preds = %93
  %100 = load ptr, ptr %9, align 8, !tbaa !38
  %101 = getelementptr inbounds nuw %struct._lv_obj_style_t, ptr %100, i64 %indvars.iv
  %102 = load ptr, ptr %101, align 8, !tbaa !49
  %103 = load i8, ptr %21, align 8, !tbaa !53
  call void @lv_style_set_prop(ptr noundef %102, i8 noundef zeroext %103, ptr %.sroa.08.0) #9
  br label %112

104:                                              ; preds = %93, %85
  %105 = load ptr, ptr %9, align 8, !tbaa !38
  %106 = getelementptr inbounds nuw %struct._lv_obj_style_t, ptr %105, i64 %indvars.iv
  %107 = load ptr, ptr %106, align 8, !tbaa !49
  %108 = load i8, ptr %21, align 8, !tbaa !53
  call void @lv_style_set_prop(ptr noundef %107, i8 noundef zeroext %108, ptr %.sroa.08.0) #9
  %109 = load ptr, ptr %0, align 8, !tbaa !51
  %110 = load i32, ptr %11, align 4, !tbaa !56
  %111 = load i8, ptr %21, align 8, !tbaa !53
  call void @lv_obj_refresh_style(ptr noundef %109, i32 noundef %110, i8 noundef zeroext %111)
  br label %112

112:                                              ; preds = %.critedge, %104
  call void @llvm.lifetime.end.p0(i64 8, ptr nonnull %3) #9
  br label %.loopexit

113:                                              ; preds = %12, %17
  %indvars.iv.next = add nuw nsw i64 %indvars.iv, 1
  %exitcond.not = icmp eq i64 %indvars.iv.next, %wide.trip.count
  br i1 %exitcond.not, label %.loopexit, label %12, !llvm.loop !106

.loopexit:                                        ; preds = %113, %2, %112
  ret void
}